target datalayout = "e-m:e-p270:32:32-p271:32:32-p272:64:64-i64:64-i128:128-f80:128-n8:16:32:64-S128"
target triple = "x86_64-pc-linux-gnu"

@ff_h264_chroma422_dc_dequant_idct_14_c.x_offset = internal constant [2 x i8] c"\00\10", align 1

; Function Attrs: nounwind uwtable
define void @ff_h264_chroma422_dc_dequant_idct_14_c(ptr noundef %0, i32 noundef %1) #0 {
  %3 = alloca ptr, align 8
  %4 = alloca i32, align 4
  %5 = alloca i32, align 4
  %6 = alloca i32, align 4
  %7 = alloca i32, align 4
  %8 = alloca [8 x i32], align 16
  %9 = alloca ptr, align 8
  %10 = alloca i32, align 4
  %11 = alloca i32, align 4
  %12 = alloca i32, align 4
  %13 = alloca i32, align 4
  %14 = alloca i32, align 4
  store ptr %0, ptr %3, align 8, !tbaa !9
  store i32 %1, ptr %4, align 4, !tbaa !11
  call void @llvm.lifetime.start.p0(i64 4, ptr %5) #4
  store i32 32, ptr %5, align 4, !tbaa !11
  call void @llvm.lifetime.start.p0(i64 4, ptr %6) #4
  store i32 16, ptr %6, align 4, !tbaa !11
  call void @llvm.lifetime.start.p0(i64 4, ptr %7) #4
  call void @llvm.lifetime.start.p0(i64 32, ptr %8) #4
  call void @llvm.lifetime.start.p0(i64 8, ptr %9) #4
  %15 = load ptr, ptr %3, align 8, !tbaa !9
  store ptr %15, ptr %9, align 8, !tbaa !25
  store i32 0, ptr %7, align 4, !tbaa !11
  br label %16

16:                                               ; preds = %60, %2
  %17 = load i32, ptr %7, align 4, !tbaa !11
  %18 = icmp slt i32 %17, 4
  br i1 %18, label %19, label %63

19:                                               ; preds = %16
  %20 = load ptr, ptr %9, align 8, !tbaa !25
  %21 = load i32, ptr %7, align 4, !tbaa !11
  %22 = mul nsw i32 32, %21
  %23 = add nsw i32 %22, 0
  %24 = sext i32 %23 to i64
  %25 = getelementptr inbounds i32, ptr %20, i64 %24
  %26 = load i32, ptr %25, align 4, !tbaa !11
  %27 = load ptr, ptr %9, align 8, !tbaa !25
  %28 = load i32, ptr %7, align 4, !tbaa !11
  %29 = mul nsw i32 32, %28
  %30 = add nsw i32 %29, 16
  %31 = sext i32 %30 to i64
  %32 = getelementptr inbounds i32, ptr %27, i64 %31
  %33 = load i32, ptr %32, align 4, !tbaa !11
  %34 = add i32 %26, %33
  %35 = load i32, ptr %7, align 4, !tbaa !11
  %36 = mul nsw i32 2, %35
  %37 = add nsw i32 %36, 0
  %38 = sext i32 %37 to i64
  %39 = getelementptr inbounds [8 x i32], ptr %8, i64 0, i64 %38
  store i32 %34, ptr %39, align 4, !tbaa !11
  %40 = load ptr, ptr %9, align 8, !tbaa !25
  %41 = load i32, ptr %7, align 4, !tbaa !11
  %42 = mul nsw i32 32, %41
  %43 = add nsw i32 %42, 0
  %44 = sext i32 %43 to i64
  %45 = getelementptr inbounds i32, ptr %40, i64 %44
  %46 = load i32, ptr %45, align 4, !tbaa !11
  %47 = load ptr, ptr %9, align 8, !tbaa !25
  %48 = load i32, ptr %7, align 4, !tbaa !11
  %49 = mul nsw i32 32, %48
  %50 = add nsw i32 %49, 16
  %51 = sext i32 %50 to i64
  %52 = getelementptr inbounds i32, ptr %47, i64 %51
  %53 = load i32, ptr %52, align 4, !tbaa !11
  %54 = sub i32 %46, %53
  %55 = load i32, ptr %7, align 4, !tbaa !11
  %56 = mul nsw i32 2, %55
  %57 = add nsw i32 %56, 1
  %58 = sext i32 %57 to i64
  %59 = getelementptr inbounds [8 x i32], ptr %8, i64 0, i64 %58
  store i32 %54, ptr %59, align 4, !tbaa !11
  br label %60

60:                                               ; preds = %19
  %61 = load i32, ptr %7, align 4, !tbaa !11
  %62 = add nsw i32 %61, 1
  store i32 %62, ptr %7, align 4, !tbaa !11
  br label %16, !llvm.loop !125

63:                                               ; preds = %16
  store i32 0, ptr %7, align 4, !tbaa !11
  br label %64

64:                                               ; preds = %165, %63
  %65 = load i32, ptr %7, align 4, !tbaa !11
  %66 = icmp slt i32 %65, 2
  br i1 %66, label %67, label %168

67:                                               ; preds = %64
  call void @llvm.lifetime.start.p0(i64 4, ptr %10) #4
  %68 = load i32, ptr %7, align 4, !tbaa !11
  %69 = sext i32 %68 to i64
  %70 = getelementptr inbounds [2 x i8], ptr @ff_h264_chroma422_dc_dequant_idct_14_c.x_offset, i64 0, i64 %69
  %71 = load i8, ptr %70, align 1, !tbaa !17
  %72 = zext i8 %71 to i32
  store i32 %72, ptr %10, align 4, !tbaa !11
  call void @llvm.lifetime.start.p0(i64 4, ptr %11) #4
  %73 = load i32, ptr %7, align 4, !tbaa !11
  %74 = add nsw i32 0, %73
  %75 = sext i32 %74 to i64
  %76 = getelementptr inbounds [8 x i32], ptr %8, i64 0, i64 %75
  %77 = load i32, ptr %76, align 4, !tbaa !11
  %78 = load i32, ptr %7, align 4, !tbaa !11
  %79 = add nsw i32 4, %78
  %80 = sext i32 %79 to i64
  %81 = getelementptr inbounds [8 x i32], ptr %8, i64 0, i64 %80
  %82 = load i32, ptr %81, align 4, !tbaa !11
  %83 = add i32 %77, %82
  store i32 %83, ptr %11, align 4, !tbaa !11
  call void @llvm.lifetime.start.p0(i64 4, ptr %12) #4
  %84 = load i32, ptr %7, align 4, !tbaa !11
  %85 = add nsw i32 0, %84
  %86 = sext i32 %85 to i64
  %87 = getelementptr inbounds [8 x i32], ptr %8, i64 0, i64 %86
  %88 = load i32, ptr %87, align 4, !tbaa !11
  %89 = load i32, ptr %7, align 4, !tbaa !11
  %90 = add nsw i32 4, %89
  %91 = sext i32 %90 to i64
  %92 = getelementptr inbounds [8 x i32], ptr %8, i64 0, i64 %91
  %93 = load i32, ptr %92, align 4, !tbaa !11
  %94 = sub i32 %88, %93
  store i32 %94, ptr %12, align 4, !tbaa !11
  call void @llvm.lifetime.start.p0(i64 4, ptr %13) #4
  %95 = load i32, ptr %7, align 4, !tbaa !11
  %96 = add nsw i32 2, %95
  %97 = sext i32 %96 to i64
  %98 = getelementptr inbounds [8 x i32], ptr %8, i64 0, i64 %97
  %99 = load i32, ptr %98, align 4, !tbaa !11
  %100 = load i32, ptr %7, align 4, !tbaa !11
  %101 = add nsw i32 6, %100
  %102 = sext i32 %101 to i64
  %103 = getelementptr inbounds [8 x i32], ptr %8, i64 0, i64 %102
  %104 = load i32, ptr %103, align 4, !tbaa !11
  %105 = sub i32 %99, %104
  store i32 %105, ptr %13, align 4, !tbaa !11
  call void @llvm.lifetime.start.p0(i64 4, ptr %14) #4
  %106 = load i32, ptr %7, align 4, !tbaa !11
  %107 = add nsw i32 2, %106
  %108 = sext i32 %107 to i64
  %109 = getelementptr inbounds [8 x i32], ptr %8, i64 0, i64 %108
  %110 = load i32, ptr %109, align 4, !tbaa !11
  %111 = load i32, ptr %7, align 4, !tbaa !11
  %112 = add nsw i32 6, %111
  %113 = sext i32 %112 to i64
  %114 = getelementptr inbounds [8 x i32], ptr %8, i64 0, i64 %113
  %115 = load i32, ptr %114, align 4, !tbaa !11
  %116 = add i32 %110, %115
  store i32 %116, ptr %14, align 4, !tbaa !11
  %117 = load i32, ptr %11, align 4, !tbaa !11
  %118 = load i32, ptr %14, align 4, !tbaa !11
  %119 = add i32 %117, %118
  %120 = load i32, ptr %4, align 4, !tbaa !11
  %121 = mul i32 %119, %120
  %122 = add i32 %121, 128
  %123 = ashr i32 %122, 8
  %124 = load ptr, ptr %9, align 8, !tbaa !25
  %125 = load i32, ptr %10, align 4, !tbaa !11
  %126 = add nsw i32 0, %125
  %127 = sext i32 %126 to i64
  %128 = getelementptr inbounds i32, ptr %124, i64 %127
  store i32 %123, ptr %128, align 4, !tbaa !11
  %129 = load i32, ptr %12, align 4, !tbaa !11
  %130 = load i32, ptr %13, align 4, !tbaa !11
  %131 = add i32 %129, %130
  %132 = load i32, ptr %4, align 4, !tbaa !11
  %133 = mul i32 %131, %132
  %134 = add i32 %133, 128
  %135 = ashr i32 %134, 8
  %136 = load ptr, ptr %9, align 8, !tbaa !25
  %137 = load i32, ptr %10, align 4, !tbaa !11
  %138 = add nsw i32 32, %137
  %139 = sext i32 %138 to i64
  %140 = getelementptr inbounds i32, ptr %136, i64 %139
  store i32 %135, ptr %140, align 4, !tbaa !11
  %141 = load i32, ptr %12, align 4, !tbaa !11
  %142 = load i32, ptr %13, align 4, !tbaa !11
  %143 = sub i32 %141, %142
  %144 = load i32, ptr %4, align 4, !tbaa !11
  %145 = mul i32 %143, %144
  %146 = add i32 %145, 128
  %147 = ashr i32 %146, 8
  %148 = load ptr, ptr %9, align 8, !tbaa !25
  %149 = load i32, ptr %10, align 4, !tbaa !11
  %150 = add nsw i32 64, %149
  %151 = sext i32 %150 to i64
  %152 = getelementptr inbounds i32, ptr %148, i64 %151
  store i32 %147, ptr %152, align 4, !tbaa !11
  %153 = load i32, ptr %11, align 4, !tbaa !11
  %154 = load i32, ptr %14, align 4, !tbaa !11
  %155 = sub i32 %153, %154
  %156 = load i32, ptr %4, align 4, !tbaa !11
  %157 = mul i32 %155, %156
  %158 = add i32 %157, 128
  %159 = ashr i32 %158, 8
  %160 = load ptr, ptr %9, align 8, !tbaa !25
  %161 = load i32, ptr %10, align 4, !tbaa !11
  %162 = add nsw i32 96, %161
  %163 = sext i32 %162 to i64
  %164 = getelementptr inbounds i32, ptr %160, i64 %163
  store i32 %159, ptr %164, align 4, !tbaa !11
  call void @llvm.lifetime.end.p0(i64 4, ptr %14) #4
  call void @llvm.lifetime.end.p0(i64 4, ptr %13) #4
  call void @llvm.lifetime.end.p0(i64 4, ptr %12) #4
  call void @llvm.lifetime.end.p0(i64 4, ptr %11) #4
  call void @llvm.lifetime.end.p0(i64 4, ptr %10) #4
  br label %165

165:                                              ; preds = %67
  %166 = load i32, ptr %7, align 4, !tbaa !11
  %167 = add nsw i32 %166, 1
  store i32 %167, ptr %7, align 4, !tbaa !11
  br label %64, !llvm.loop !126

168:                                              ; preds = %64
  call void @llvm.lifetime.end.p0(i64 8, ptr %9) #4
  call void @llvm.lifetime.end.p0(i64 32, ptr %8) #4
  call void @llvm.lifetime.end.p0(i64 4, ptr %7) #4
  call void @llvm.lifetime.end.p0(i64 4, ptr %6) #4
  call void @llvm.lifetime.end.p0(i64 4, ptr %5) #4
  ret void
}