; Function Attrs: nofree norecurse nosync nounwind memory(argmem: readwrite) uwtable
define void @ff_h264_chroma422_dc_dequant_idct_14_c(ptr noundef captures(none) %0, i32 noundef %1) local_unnamed_addr #0 {
  %3 = alloca [8 x i32], align 16
  call void @llvm.lifetime.start.p0(i64 32, ptr nonnull %3) #6
  %indvars.iv46.sroa.gep = getelementptr inbounds nuw i8, ptr %3, i64 4
  br label %4

4:                                                ; preds = %2, %4
  %indvars.iv = phi i64 [ 0, %2 ], [ %indvars.iv.next, %4 ]
  %.idx = shl nuw nsw i64 %indvars.iv, 7
  %5 = getelementptr inbounds nuw i8, ptr %0, i64 %.idx
  %6 = load i32, ptr %5, align 4, !tbaa !18
  %7 = getelementptr inbounds nuw i8, ptr %5, i64 64
  %8 = load i32, ptr %7, align 4, !tbaa !18
  %9 = add i32 %8, %6
  %10 = shl nuw nsw i64 %indvars.iv, 1
  %11 = getelementptr inbounds nuw [8 x i32], ptr %3, i64 0, i64 %10
  store i32 %9, ptr %11, align 8, !tbaa !18
  %12 = sub i32 %6, %8
  %13 = or disjoint i64 %10, 1
  %14 = getelementptr inbounds nuw [8 x i32], ptr %3, i64 0, i64 %13
  store i32 %12, ptr %14, align 4, !tbaa !18
  %indvars.iv.next = add nuw nsw i64 %indvars.iv, 1
  %exitcond.not = icmp eq i64 %indvars.iv.next, 4
  br i1 %exitcond.not, label %.preheader, label %4, !llvm.loop !118

.preheader:                                       ; preds = %4, %.preheader
  %15 = phi i1 [ false, %.preheader ], [ true, %4 ]
  %indvars.iv46.sroa.phi = phi ptr [ %indvars.iv46.sroa.gep, %.preheader ], [ %3, %4 ]
  %indvars.iv46 = phi i64 [ 1, %.preheader ], [ 0, %4 ]
  %16 = getelementptr inbounds nuw [2 x i8], ptr @ff_h264_chroma422_dc_dequant_idct_14_c.x_offset, i64 0, i64 %indvars.iv46
  %17 = load i8, ptr %16, align 1, !tbaa !10
  %18 = zext i8 %17 to i64
  %19 = load i32, ptr %indvars.iv46.sroa.phi, align 4, !tbaa !18
  %20 = or disjoint i64 %indvars.iv46, 4
  %21 = getelementptr inbounds nuw [8 x i32], ptr %3, i64 0, i64 %20
  %22 = load i32, ptr %21, align 4, !tbaa !18
  %23 = add i32 %22, %19
  %24 = sub i32 %19, %22
  %25 = or disjoint i64 %indvars.iv46, 2
  %26 = getelementptr inbounds nuw [8 x i32], ptr %3, i64 0, i64 %25
  %27 = load i32, ptr %26, align 4, !tbaa !18
  %28 = or disjoint i64 %indvars.iv46, 6
  %29 = getelementptr inbounds nuw [8 x i32], ptr %3, i64 0, i64 %28
  %30 = load i32, ptr %29, align 4, !tbaa !18
  %31 = sub i32 %27, %30
  %32 = add i32 %30, %27
  %33 = add i32 %32, %23
  %34 = mul i32 %33, %1
  %35 = add i32 %34, 128
  %36 = ashr i32 %35, 8
  %37 = getelementptr inbounds nuw i32, ptr %0, i64 %18
  store i32 %36, ptr %37, align 4, !tbaa !18
  %38 = add i32 %31, %24
  %39 = mul i32 %38, %1
  %40 = add i32 %39, 128
  %41 = ashr i32 %40, 8
  %42 = getelementptr inbounds nuw i8, ptr %37, i64 128
  store i32 %41, ptr %42, align 4, !tbaa !18
  %43 = sub i32 %24, %31
  %44 = mul i32 %43, %1
  %45 = add i32 %44, 128
  %46 = ashr i32 %45, 8
  %47 = getelementptr inbounds nuw i8, ptr %37, i64 256
  store i32 %46, ptr %47, align 4, !tbaa !18
  %48 = sub i32 %23, %32
  %49 = mul i32 %48, %1
  %50 = add i32 %49, 128
  %51 = ashr i32 %50, 8
  %52 = getelementptr inbounds nuw i8, ptr %37, i64 384
  store i32 %51, ptr %52, align 4, !tbaa !18
  br i1 %15, label %.preheader, label %53, !llvm.loop !119

53:                                               ; preds = %.preheader
  call void @llvm.lifetime.end.p0(i64 32, ptr nonnull %3) #6
  ret void
}